
LEDControl.elf:     file format elf32-avr

Sections:
Idx Name          Size      VMA       LMA       File off  Algn
  0 .data         00000000  00800100  00800100  000001ba  2**0
                  CONTENTS, ALLOC, LOAD, DATA
  1 .text         00000166  00000000  00000000  00000054  2**1
                  CONTENTS, ALLOC, LOAD, READONLY, CODE
  2 .comment      00000030  00000000  00000000  000001ba  2**0
                  CONTENTS, READONLY
  3 .note.gnu.avr.deviceinfo 00000040  00000000  00000000  000001ec  2**2
                  CONTENTS, READONLY
  4 .debug_aranges 00000020  00000000  00000000  0000022c  2**0
                  CONTENTS, READONLY, DEBUGGING
  5 .debug_info   00000a1a  00000000  00000000  0000024c  2**0
                  CONTENTS, READONLY, DEBUGGING
  6 .debug_abbrev 00000800  00000000  00000000  00000c66  2**0
                  CONTENTS, READONLY, DEBUGGING
  7 .debug_line   0000034a  00000000  00000000  00001466  2**0
                  CONTENTS, READONLY, DEBUGGING
  8 .debug_frame  00000024  00000000  00000000  000017b0  2**2
                  CONTENTS, READONLY, DEBUGGING
  9 .debug_str    00000407  00000000  00000000  000017d4  2**0
                  CONTENTS, READONLY, DEBUGGING
 10 .debug_loc    000001f8  00000000  00000000  00001bdb  2**0
                  CONTENTS, READONLY, DEBUGGING
 11 .debug_ranges 00000010  00000000  00000000  00001dd3  2**0
                  CONTENTS, READONLY, DEBUGGING

Disassembly of section .text:

00000000 <__vectors>:
   0:	45 c0       	rjmp	.+138    	; 0x8c <__ctors_end>
   2:	00 00       	nop
   4:	4b c0       	rjmp	.+150    	; 0x9c <__bad_interrupt>
   6:	00 00       	nop
   8:	49 c0       	rjmp	.+146    	; 0x9c <__bad_interrupt>
   a:	00 00       	nop
   c:	47 c0       	rjmp	.+142    	; 0x9c <__bad_interrupt>
   e:	00 00       	nop
  10:	45 c0       	rjmp	.+138    	; 0x9c <__bad_interrupt>
  12:	00 00       	nop
  14:	43 c0       	rjmp	.+134    	; 0x9c <__bad_interrupt>
  16:	00 00       	nop
  18:	41 c0       	rjmp	.+130    	; 0x9c <__bad_interrupt>
  1a:	00 00       	nop
  1c:	3f c0       	rjmp	.+126    	; 0x9c <__bad_interrupt>
  1e:	00 00       	nop
  20:	3d c0       	rjmp	.+122    	; 0x9c <__bad_interrupt>
  22:	00 00       	nop
  24:	3b c0       	rjmp	.+118    	; 0x9c <__bad_interrupt>
  26:	00 00       	nop
  28:	39 c0       	rjmp	.+114    	; 0x9c <__bad_interrupt>
  2a:	00 00       	nop
  2c:	37 c0       	rjmp	.+110    	; 0x9c <__bad_interrupt>
  2e:	00 00       	nop
  30:	35 c0       	rjmp	.+106    	; 0x9c <__bad_interrupt>
  32:	00 00       	nop
  34:	33 c0       	rjmp	.+102    	; 0x9c <__bad_interrupt>
  36:	00 00       	nop
  38:	31 c0       	rjmp	.+98     	; 0x9c <__bad_interrupt>
  3a:	00 00       	nop
  3c:	2f c0       	rjmp	.+94     	; 0x9c <__bad_interrupt>
  3e:	00 00       	nop
  40:	2d c0       	rjmp	.+90     	; 0x9c <__bad_interrupt>
  42:	00 00       	nop
  44:	2b c0       	rjmp	.+86     	; 0x9c <__bad_interrupt>
  46:	00 00       	nop
  48:	29 c0       	rjmp	.+82     	; 0x9c <__bad_interrupt>
  4a:	00 00       	nop
  4c:	27 c0       	rjmp	.+78     	; 0x9c <__bad_interrupt>
  4e:	00 00       	nop
  50:	25 c0       	rjmp	.+74     	; 0x9c <__bad_interrupt>
  52:	00 00       	nop
  54:	23 c0       	rjmp	.+70     	; 0x9c <__bad_interrupt>
  56:	00 00       	nop
  58:	21 c0       	rjmp	.+66     	; 0x9c <__bad_interrupt>
  5a:	00 00       	nop
  5c:	1f c0       	rjmp	.+62     	; 0x9c <__bad_interrupt>
  5e:	00 00       	nop
  60:	1d c0       	rjmp	.+58     	; 0x9c <__bad_interrupt>
  62:	00 00       	nop
  64:	1b c0       	rjmp	.+54     	; 0x9c <__bad_interrupt>
  66:	00 00       	nop
  68:	19 c0       	rjmp	.+50     	; 0x9c <__bad_interrupt>
  6a:	00 00       	nop
  6c:	17 c0       	rjmp	.+46     	; 0x9c <__bad_interrupt>
  6e:	00 00       	nop
  70:	15 c0       	rjmp	.+42     	; 0x9c <__bad_interrupt>
  72:	00 00       	nop
  74:	13 c0       	rjmp	.+38     	; 0x9c <__bad_interrupt>
  76:	00 00       	nop
  78:	11 c0       	rjmp	.+34     	; 0x9c <__bad_interrupt>
  7a:	00 00       	nop
  7c:	0f c0       	rjmp	.+30     	; 0x9c <__bad_interrupt>
  7e:	00 00       	nop
  80:	0d c0       	rjmp	.+26     	; 0x9c <__bad_interrupt>
  82:	00 00       	nop
  84:	0b c0       	rjmp	.+22     	; 0x9c <__bad_interrupt>
  86:	00 00       	nop
  88:	09 c0       	rjmp	.+18     	; 0x9c <__bad_interrupt>
	...

0000008c <__ctors_end>:
  8c:	11 24       	eor	r1, r1
  8e:	1f be       	out	0x3f, r1	; 63
  90:	cf ef       	ldi	r28, 0xFF	; 255
  92:	d0 e1       	ldi	r29, 0x10	; 16
  94:	de bf       	out	0x3e, r29	; 62
  96:	cd bf       	out	0x3d, r28	; 61
  98:	02 d0       	rcall	.+4      	; 0x9e <main>
  9a:	63 c0       	rjmp	.+198    	; 0x162 <_exit>

0000009c <__bad_interrupt>:
  9c:	b1 cf       	rjmp	.-158    	; 0x0 <__vectors>

0000009e <main>:
#include <util/delay.h>

int main(void)
{
	/* Setup */
	DDRA = 0xff;
  9e:	8f ef       	ldi	r24, 0xFF	; 255
  a0:	8a bb       	out	0x1a, r24	; 26
	PORTA = 0xff;
  a2:	8b bb       	out	0x1b, r24	; 27
    while (1) 
    {
		
		PORTA &= ~0x45;		
		_delay_ms(500);
		PORTA |= 0xff;
  a4:	9f ef       	ldi	r25, 0xFF	; 255
	DDRA = 0xff;
	PORTA = 0xff;
    while (1) 
    {
		
		PORTA &= ~0x45;		
  a6:	8b b3       	in	r24, 0x1b	; 27
  a8:	8a 7b       	andi	r24, 0xBA	; 186
  aa:	8b bb       	out	0x1b, r24	; 27
	#else
		//round up by default
		__ticks_dc = (uint32_t)(ceil(fabs(__tmp)));
	#endif

	__builtin_avr_delay_cycles(__ticks_dc);
  ac:	2f ef       	ldi	r18, 0xFF	; 255
  ae:	34 e3       	ldi	r19, 0x34	; 52
  b0:	8c e0       	ldi	r24, 0x0C	; 12
  b2:	21 50       	subi	r18, 0x01	; 1
  b4:	30 40       	sbci	r19, 0x00	; 0
  b6:	80 40       	sbci	r24, 0x00	; 0
  b8:	e1 f7       	brne	.-8      	; 0xb2 <main+0x14>
  ba:	00 c0       	rjmp	.+0      	; 0xbc <main+0x1e>
  bc:	00 00       	nop
		_delay_ms(500);
		PORTA |= 0xff;
  be:	8b b3       	in	r24, 0x1b	; 27
  c0:	9b bb       	out	0x1b, r25	; 27
  c2:	2f ef       	ldi	r18, 0xFF	; 255
  c4:	34 e3       	ldi	r19, 0x34	; 52
  c6:	8c e0       	ldi	r24, 0x0C	; 12
  c8:	21 50       	subi	r18, 0x01	; 1
  ca:	30 40       	sbci	r19, 0x00	; 0
  cc:	80 40       	sbci	r24, 0x00	; 0
  ce:	e1 f7       	brne	.-8      	; 0xc8 <main+0x2a>
  d0:	00 c0       	rjmp	.+0      	; 0xd2 <main+0x34>
  d2:	00 00       	nop
		_delay_ms(500);
		
		PORTA &= ~0xff;
  d4:	8b b3       	in	r24, 0x1b	; 27
  d6:	1b ba       	out	0x1b, r1	; 27
  d8:	2f ef       	ldi	r18, 0xFF	; 255
  da:	39 e6       	ldi	r19, 0x69	; 105
  dc:	88 e1       	ldi	r24, 0x18	; 24
  de:	21 50       	subi	r18, 0x01	; 1
  e0:	30 40       	sbci	r19, 0x00	; 0
  e2:	80 40       	sbci	r24, 0x00	; 0
  e4:	e1 f7       	brne	.-8      	; 0xde <main+0x40>
  e6:	00 c0       	rjmp	.+0      	; 0xe8 <main+0x4a>
  e8:	00 00       	nop
		_delay_ms(1000);
		PORTA &= ~0x0f;
  ea:	8b b3       	in	r24, 0x1b	; 27
  ec:	80 7f       	andi	r24, 0xF0	; 240
  ee:	8b bb       	out	0x1b, r24	; 27
  f0:	2f ef       	ldi	r18, 0xFF	; 255
  f2:	39 e6       	ldi	r19, 0x69	; 105
  f4:	88 e1       	ldi	r24, 0x18	; 24
  f6:	21 50       	subi	r18, 0x01	; 1
  f8:	30 40       	sbci	r19, 0x00	; 0
  fa:	80 40       	sbci	r24, 0x00	; 0
  fc:	e1 f7       	brne	.-8      	; 0xf6 <main+0x58>
  fe:	00 c0       	rjmp	.+0      	; 0x100 <main+0x62>
 100:	00 00       	nop
		_delay_ms(1000);
		PORTA &= ~0xf0;
 102:	8b b3       	in	r24, 0x1b	; 27
 104:	8f 70       	andi	r24, 0x0F	; 15
 106:	8b bb       	out	0x1b, r24	; 27
 108:	2f ef       	ldi	r18, 0xFF	; 255
 10a:	39 e6       	ldi	r19, 0x69	; 105
 10c:	88 e1       	ldi	r24, 0x18	; 24
 10e:	21 50       	subi	r18, 0x01	; 1
 110:	30 40       	sbci	r19, 0x00	; 0
 112:	80 40       	sbci	r24, 0x00	; 0
 114:	e1 f7       	brne	.-8      	; 0x10e <main+0x70>
 116:	00 c0       	rjmp	.+0      	; 0x118 <main+0x7a>
 118:	00 00       	nop
		_delay_ms(1000);
		PORTA |= 0xff;
 11a:	8b b3       	in	r24, 0x1b	; 27
 11c:	9b bb       	out	0x1b, r25	; 27
 11e:	2f ef       	ldi	r18, 0xFF	; 255
 120:	39 e6       	ldi	r19, 0x69	; 105
 122:	88 e1       	ldi	r24, 0x18	; 24
 124:	21 50       	subi	r18, 0x01	; 1
 126:	30 40       	sbci	r19, 0x00	; 0
 128:	80 40       	sbci	r24, 0x00	; 0
 12a:	e1 f7       	brne	.-8      	; 0x124 <main+0x86>
 12c:	00 c0       	rjmp	.+0      	; 0x12e <main+0x90>
 12e:	00 00       	nop
		
		_delay_ms(1000);
		PORTA &= ~((1<<PORTA0)|(1<<PORTA7));	//Turn on
 130:	8b b3       	in	r24, 0x1b	; 27
 132:	8e 77       	andi	r24, 0x7E	; 126
 134:	8b bb       	out	0x1b, r24	; 27
 136:	2f ef       	ldi	r18, 0xFF	; 255
 138:	39 e6       	ldi	r19, 0x69	; 105
 13a:	88 e1       	ldi	r24, 0x18	; 24
 13c:	21 50       	subi	r18, 0x01	; 1
 13e:	30 40       	sbci	r19, 0x00	; 0
 140:	80 40       	sbci	r24, 0x00	; 0
 142:	e1 f7       	brne	.-8      	; 0x13c <main+0x9e>
 144:	00 c0       	rjmp	.+0      	; 0x146 <main+0xa8>
 146:	00 00       	nop
		_delay_ms(1000);
		PORTA |= (1<<PORTA0)|(1<<PORTA7);	//Turn off
 148:	8b b3       	in	r24, 0x1b	; 27
 14a:	81 68       	ori	r24, 0x81	; 129
 14c:	8b bb       	out	0x1b, r24	; 27
 14e:	2f ef       	ldi	r18, 0xFF	; 255
 150:	39 e6       	ldi	r19, 0x69	; 105
 152:	88 e1       	ldi	r24, 0x18	; 24
 154:	21 50       	subi	r18, 0x01	; 1
 156:	30 40       	sbci	r19, 0x00	; 0
 158:	80 40       	sbci	r24, 0x00	; 0
 15a:	e1 f7       	brne	.-8      	; 0x154 <main+0xb6>
 15c:	00 c0       	rjmp	.+0      	; 0x15e <main+0xc0>
 15e:	00 00       	nop
 160:	a2 cf       	rjmp	.-188    	; 0xa6 <main+0x8>

00000162 <_exit>:
 162:	f8 94       	cli

00000164 <__stop_program>:
 164:	ff cf       	rjmp	.-2      	; 0x164 <__stop_program>
